Certificate:
    Data:
        Version: 1 (0x0)
        Serial Number: 1048577 (0x100001)
        Signature Algorithm: md5WithRSAEncryption
        Issuer: O=Fake, OU=APNS, L=My Town, ST=Oregon, C=US, CN=apns
        Validity
            Not Before: Jun  5 19:47:12 2011 GMT
            Not After : Jun  4 19:47:12 2012 GMT
        Subject: C=US, ST=Oregon, O=Fake, OU=APNS, CN=test
        Subject Public Key Info:
            Public Key Algorithm: rsaEncryption
            RSA Public Key: (1024 bit)
                Modulus (1024 bit):
                    00:a6:63:f0:c5:48:b3:75:57:c4:bb:b6:4c:99:71:
                    1c:08:5a:49:b6:78:c1:f0:bd:8b:0d:a5:50:f3:d5:
                    8f:7a:cb:c6:92:87:d8:30:a2:a0:8d:94:41:49:ef:
                    72:a4:80:25:77:1f:1b:58:9d:01:df:17:fb:d8:21:
                    e3:97:6d:4d:17:2f:4f:fb:50:80:bc:61:ce:04:31:
                    a0:71:e7:97:46:90:26:f7:46:5c:38:19:63:f5:08:
                    cc:c1:0c:d4:20:f0:49:cf:6f:56:fd:8f:a8:56:45:
                    d2:10:27:22:48:03:bd:8d:8e:9d:99:3b:67:a5:4d:
                    ea:6d:dd:82:34:15:34:0a:5f
                Exponent: 65537 (0x10001)
    Signature Algorithm: md5WithRSAEncryption
        70:23:d1:0e:30:94:0e:bd:65:f9:c8:af:df:bb:d8:44:10:c6:
        b1:6a:64:3f:c9:c9:da:e1:bc:c2:2a:37:06:1b:91:1f:3b:27:
        b9:2a:09:d5:be:76:c2:89:83:d9:c4:6a:df:4e:b5:7a:42:db:
        73:c3:54:28:7b:57:3d:19:bb:0d:59:3e:9f:ee:ad:24:5f:62:
        80:c3:76:c6:ae:13:b6:de:5e:36:f3:0d:13:22:5a:eb:3c:a3:
        41:a4:62:82:0e:3e:7c:8e:81:2f:e8:bd:24:48:f0:69:9b:b6:
        f0:e8:f7:b1:a1:3e:fc:02:19:d3:dd:a4:29:f8:ec:1d:b9:3d:
        5d:1e
-----BEGIN CERTIFICATE-----
MIICGTCCAYICAxAAATANBgkqhkiG9w0BAQQFADBdMQ0wCwYDVQQKEwRGYWtlMQ0w
CwYDVQQLEwRBUE5TMRAwDgYDVQQHEwdNeSBUb3duMQ8wDQYDVQQIEwZPcmVnb24x
CzAJBgNVBAYTAlVTMQ0wCwYDVQQDEwRhcG5zMB4XDTExMDYwNTE5NDcxMloXDTEy
MDYwNDE5NDcxMlowSzELMAkGA1UEBhMCVVMxDzANBgNVBAgTBk9yZWdvbjENMAsG
A1UEChMERmFrZTENMAsGA1UECxMEQVBOUzENMAsGA1UEAxMEdGVzdDCBnzANBgkq
hkiG9w0BAQEFAAOBjQAwgYkCgYEApmPwxUizdVfEu7ZMmXEcCFpJtnjB8L2LDaVQ
89WPesvGkofYMKKgjZRBSe9ypIAldx8bWJ0B3xf72CHjl21NFy9P+1CAvGHOBDGg
ceeXRpAm90ZcOBlj9QjMwQzUIPBJz29W/Y+oVkXSECciSAO9jY6dmTtnpU3qbd2C
NBU0Cl8CAwEAATANBgkqhkiG9w0BAQQFAAOBgQBwI9EOMJQOvWX5yK/fu9hEEMax
amQ/ycna4bzCKjcGG5EfOye5KgnVvnbCiYPZxGrfTrV6Qttzw1Qoe1c9GbsNWT6f
7q0kX2KAw3bGrhO23l428w0TIlrrPKNBpGKCDj58joEv6L0kSPBpm7bw6PexoT78
AhnT3aQp+OwduT1dHg==
-----END CERTIFICATE-----
